; Function Attrs: mustprogress nofree norecurse nosync nounwind willreturn memory(argmem: readwrite) uwtable
define hidden noundef ptr @lxb_html_parser_ref(ptr noundef returned %0) local_unnamed_addr #2 {
  %2 = icmp eq ptr %0, null
  br i1 %2, label %7, label %3

3:                                                ; preds = %1
  %4 = getelementptr inbounds i8, ptr %0, i64 48
  %5 = load i64, ptr %4, align 8
  %6 = add i64 %5, 1
  store i64 %6, ptr %4, align 8
  br label %7

7:                                                ; preds = %1, %3
  ret ptr %0
}